(dp0
S'globalSettings'
p1
(dp2
S'curveTolerance'
p3
F0.1
sS'flightDistance'
p4
F20.0
sS'materialDiameter'
p5
F130.0
sS'materialLength'
p6
F92.0
sS'approachDistance'
p7
F2.0
ssS'toolpaths'
p8
(lp9
(itoolpath.ZParallelToolpath
ZParallelToolpath
p10
(dp11
S'shape'
p12
(iShape
DemoShape
p13
(dp14
S'points'
p15
(lp16
(F10.239367518142764
cnumpy.core.multiarray
scalar
p17
(cnumpy
dtype
p18
(S'f8'
p19
I0
I1
tp20
Rp21
(I3
S'<'
p22
NNNI-1
I-1
I0
tp23
bS'\x00\x00\x00\x00\x00\x00>@'
p24
tp25
Rp26
tp27
a(F10.646077357323897
g17
(g21
S'\x9a\x99\x99\x99\x99\x19>@'
p28
tp29
Rp30
tp31
a(F11.2461651939944
g17
(g21
S'433333>@'
p32
tp33
Rp34
tp35
a(F12.033635148852937
g17
(g21
S'\xce\xcc\xcc\xcc\xccL>@'
p36
tp37
Rp38
tp39
a(F13.000619082413515
g17
(g21
S'hfffff>@'
p40
tp41
Rp42
tp43
a(F14.137455210854384
g17
(g21
S'\x02\x00\x00\x00\x00\x80>@'
p44
tp45
Rp46
tp47
a(F15.43278464336823
g17
(g21
S'\x9c\x99\x99\x99\x99\x99>@'
p48
tp49
Rp50
tp51
a(F16.87366487644435
g17
(g21
S'63333\xb3>@'
p52
tp53
Rp54
tp55
a(F18.44569911108554
g17
(g21
S'\xd0\xcc\xcc\xcc\xcc\xcc>@'
p56
tp57
Rp58
tp59
a(F20.13318010086468
g17
(g21
S'jffff\xe6>@'
p60
tp61
Rp62
tp63
a(F21.91924709353896
g17
(g21
S'\x04\x00\x00\x00\x00\x00?@'
p64
tp65
Rp66
tp67
a(F23.786054298112823
g17
(g21
S'\x9e\x99\x99\x99\x99\x19?@'
p68
tp69
Rp70
tp71
a(F25.714949194082592
g17
(g21
S'833333?@'
p72
tp73
Rp74
tp75
a(F27.686658901255615
g17
(g21
S'\xd2\xcc\xcc\xcc\xccL?@'
p76
tp77
Rp78
tp79
a(F29.68148274799839
g17
(g21
S'lfffff?@'
p80
tp81
Rp82
tp83
a(F31.679489113835363
g17
(g21
S'\x06\x00\x00\x00\x00\x80?@'
p84
tp85
Rp86
tp87
a(F33.660714579612176
g17
(g21
S'\xa0\x99\x99\x99\x99\x99?@'
p88
tp89
Rp90
tp91
a(F35.60536339538087
g17
(g21
S':3333\xb3?@'
p92
tp93
Rp94
tp95
a(F37.4940052729897
g17
(g21
S'\xd4\xcc\xcc\xcc\xcc\xcc?@'
p96
tp97
Rp98
tp99
a(F39.30776952709961
g17
(g21
S'nffff\xe6?@'
p100
tp101
Rp102
tp103
a(F41.02853362483428
g17
(g21
S'\x04\x00\x00\x00\x00\x00@@'
p104
tp105
Rp106
tp107
a(F42.63910426013814
g17
(g21
S'\xd1\xcc\xcc\xcc\xcc\x0c@@'
p108
tp109
Rp110
tp111
a(F44.12338914360709
g17
(g21
S'\x9e\x99\x99\x99\x99\x19@@'
p112
tp113
Rp114
tp115
a(F45.46655779132486
g17
(g21
S'kffff&@@'
p116
tp117
Rp118
tp119
a(F46.65518970615599
g17
(g21
S'833333@@'
p120
tp121
Rp122
tp123
a(F47.677408470916944
g17
(g21
S'\x05\x00\x00\x00\x00@@@'
p124
tp125
Rp126
tp127
a(F48.52300041361084
g17
(g21
S'\xd2\xcc\xcc\xcc\xccL@@'
p128
tp129
Rp130
tp131
a(F49.18351665906181
g17
(g21
S'\x9f\x99\x99\x99\x99Y@@'
p132
tp133
Rp134
tp135
a(F49.652357547282946
g17
(g21
S'lfffff@@'
p136
tp137
Rp138
tp139
a(F49.92483857509735
g17
(g21
S'93333s@@'
p140
tp141
Rp142
tp143
a(F49.99823720214533
g17
(g21
S'\x06\x00\x00\x00\x00\x80@@'
p144
tp145
Rp146
tp147
a(F49.871820053607806
g17
(g21
S'\xd3\xcc\xcc\xcc\xcc\x8c@@'
p148
tp149
Rp150
tp151
a(F49.546850247844986
g17
(g21
S'\xa0\x99\x99\x99\x99\x99@@'
p152
tp153
Rp154
tp155
a(F49.02657477573535
g17
(g21
S'mffff\xa6@@'
p156
tp157
Rp158
tp159
a(F48.31619205781598
g17
(g21
S':3333\xb3@@'
p160
tp161
Rp162
tp163
a(F47.42280000338304
g17
(g21
S'\x07\x00\x00\x00\x00\xc0@@'
p164
tp165
Rp166
tp167
a(F46.35532509052827
g17
(g21
S'\xd4\xcc\xcc\xcc\xcc\xcc@@'
p168
tp169
Rp170
tp171
a(F45.12443317572061
g17
(g21
S'\xa1\x99\x99\x99\x99\xd9@@'
p172
tp173
Rp174
tp175
a(F43.74242292409406
g17
(g21
S'nffff\xe6@@'
p176
tp177
Rp178
tp179
a(F42.22310292525102
g17
(g21
S';3333\xf3@@'
p180
tp181
Rp182
tp183
a(F40.58165372239951
g17
(g21
S'\x08\x00\x00\x00\x00\x00A@'
p184
tp185
Rp186
tp187
a(F38.834476133383454
g17
(g21
S'\xd5\xcc\xcc\xcc\xcc\x0cA@'
p188
tp189
Rp190
tp191
a(F36.99902737913218
g17
(g21
S'\xa2\x99\x99\x99\x99\x19A@'
p192
tp193
Rp194
tp195
a(F35.093646656879464
g17
(g21
S'offff&A@'
p196
tp197
Rp198
tp199
a(F33.13737190096694
g17
(g21
S'<33333A@'
p200
tp201
Rp202
tp203
a(F31.149749562097213
g17
(g21
S'\t\x00\x00\x00\x00@A@'
p204
tp205
Rp206
tp207
a(F29.15063930565969
g17
(g21
S'\xd6\xcc\xcc\xcc\xccLA@'
p208
tp209
Rp210
tp211
a(F27.1600155805187
g17
(g21
S'\xa3\x99\x99\x99\x99YA@'
p212
tp213
Rp214
tp215
a(F25.19776804092313
g17
(g21
S'pfffffA@'
p216
tp217
Rp218
tp219
a(F23.283502815655822
g17
(g21
S'=3333sA@'
p220
tp221
Rp222
tp223
a(F21.436346610075695
g17
(g21
S'\n\x00\x00\x00\x00\x80A@'
p224
tp225
Rp226
tp227
a(F19.674755598400242
g17
(g21
S'\xd7\xcc\xcc\xcc\xcc\x8cA@'
p228
tp229
Rp230
tp231
a(F18.016331015713558
g17
(g21
S'\xa4\x99\x99\x99\x99\x99A@'
p232
tp233
Rp234
tp235
a(F16.477643292243563
g17
(g21
S'qffff\xa6A@'
p236
tp237
Rp238
tp239
a(F15.074066487100634
g17
(g21
S'>3333\xb3A@'
p240
tp241
Rp242
tp243
a(F13.819624675760952
g17
(g21
S'\x0b\x00\x00\x00\x00\xc0A@'
p244
tp245
Rp246
tp247
a(F12.726851826140091
g17
(g21
S'\xd8\xcc\xcc\xcc\xcc\xccA@'
p248
tp249
Rp250
tp251
a(F11.806666563328786
g17
(g21
S'\xa5\x99\x99\x99\x99\xd9A@'
p252
tp253
Rp254
tp255
a(F11.06826307430024
g17
(g21
S'rffff\xe6A@'
p256
tp257
Rp258
tp259
a(F10.519019242633085
g17
(g21
S'?3333\xf3A@'
p260
tp261
Rp262
tp263
a(F10.164422931137466
g17
(g21
S'\x0c\x00\x00\x00\x00\x00B@'
p264
tp265
Rp266
tp267
a(F10.008017148943892
g17
(g21
S'\xd9\xcc\xcc\xcc\xcc\x0cB@'
p268
tp269
Rp270
tp271
a(F10.051364650927162
g17
(g21
S'\xa6\x99\x99\x99\x99\x19B@'
p272
tp273
Rp274
tp275
a(F10.29403232317624
g17
(g21
S'sffff&B@'
p276
tp277
Rp278
tp279
a(F10.73359551052528
g17
(g21
S'@33333B@'
p280
tp281
Rp282
tp283
a(F11.36566224290656
g17
(g21
S'\r\x00\x00\x00\x00@B@'
p284
tp285
Rp286
tp287
a(F12.183917118463611
g17
(g21
S'\xda\xcc\xcc\xcc\xccLB@'
p288
tp289
Rp290
tp291
a(F13.180184404958968
g17
(g21
S'\xa7\x99\x99\x99\x99YB@'
p292
tp293
Rp294
tp295
a(F14.34450972898815
g17
(g21
S'tfffffB@'
p296
tp297
Rp298
tp299
a(F15.665259536788236
g17
(g21
S'A3333sB@'
p300
tp301
Rp302
tp303
a(F17.129237332861535
g17
(g21
S'\x0e\x00\x00\x00\x00\x80B@'
p304
tp305
Rp306
tp307
a(F18.721815534996395
g17
(g21
S'\xdb\xcc\xcc\xcc\xcc\x8cB@'
p308
tp309
Rp310
tp311
a(F20.42708162823345
g17
(g21
S'\xa8\x99\x99\x99\x99\x99B@'
p312
tp313
Rp314
tp315
a(F22.227997157455096
g17
(g21
S'uffff\xa6B@'
p316
tp317
Rp318
tp319
a(F24.106567969996885
g17
(g21
S'B3333\xb3B@'
p320
tp321
Rp322
tp323
a(F26.044024007272846
g17
(g21
S'\x0f\x00\x00\x00\x00\xc0B@'
p324
tp325
Rp326
tp327
a(F28.02100684899633
g17
(g21
S'\xdc\xcc\xcc\xcc\xcc\xccB@'
p328
tp329
Rp330
tp331
a(F30.017763136116482
g17
(g21
S'\xa9\x99\x99\x99\x99\xd9B@'
p332
tp333
Rp334
tp335
a(F32.01434193985227
g17
(g21
S'vffff\xe6B@'
p336
tp337
Rp338
tp339
a(F33.990794104777976
g17
(g21
S'C3333\xf3B@'
p340
tp341
Rp342
tp343
a(F35.92737157418988
g17
(g21
S'\x10\x00\x00\x00\x00\x00C@'
p344
tp345
Rp346
tp347
a(F37.80472470616102
g17
(g21
S'\xdd\xcc\xcc\xcc\xcc\x0cC@'
p348
tp349
Rp350
tp351
a(F39.604095608767174
g17
(g21
S'\xaa\x99\x99\x99\x99\x19C@'
p352
tp353
Rp354
tp355
a(F41.30750556274245
g17
(g21
S'wffff&C@'
p356
tp357
Rp358
tp359
a(F42.89793465889919
g17
(g21
S'D33333C@'
p360
tp361
Rp362
tp363
a(F44.35949185543457
g17
(g21
S'\x11\x00\x00\x00\x00@C@'
p364
tp365
Rp366
tp367
a(F45.67757375596736
g17
(g21
S'\xde\xcc\xcc\xcc\xccLC@'
p368
tp369
Rp370
tp371
a(F46.8390105218474
g17
(g21
S'\xab\x99\x99\x99\x99YC@'
p372
tp373
Rp374
tp375
a(F47.832197460829974
g17
(g21
S'xfffffC@'
p376
tp377
Rp378
tp379
a(F48.647210977324704
g17
(g21
S'E3333sC@'
p380
tp381
Rp382
tp383
a(F49.27590772568244
g17
(g21
S'\x12\x00\x00\x00\x00\x80C@'
p384
tp385
Rp386
tp387
a(F49.71200597581309
g17
(g21
S'\xdf\xcc\xcc\xcc\xcc\x8cC@'
p388
tp389
Rp390
tp391
a(F49.95114837815628
g17
(g21
S'\xac\x99\x99\x99\x99\x99C@'
p392
tp393
Rp394
tp395
a(F49.99094550087776
g17
(g21
S'yffff\xa6C@'
p396
tp397
Rp398
tp399
a(F49.83099970428247
g17
(g21
S'F3333\xb3C@'
p400
tp401
Rp402
tp403
a(F49.47290911389895
g17
(g21
S'\x13\x00\x00\x00\x00\xc0C@'
p404
tp405
Rp406
tp407
a(F48.92025165253729
g17
(g21
S'\xe0\xcc\xcc\xcc\xcc\xccC@'
p408
tp409
Rp410
tp411
a(F48.17854929086715
g17
(g21
S'\xad\x99\x99\x99\x99\xd9C@'
p412
tp413
Rp414
tp415
a(F47.25521287371214
g17
(g21
S'zffff\xe6C@'
p416
tp417
Rp418
tp419
a(F46.15946807333803
g17
(g21
S'G3333\xf3C@'
p420
tp421
Rp422
tp423
a(F44.90226320958508
g17
(g21
S'\x14\x00\x00\x00\x00\x00D@'
p424
tp425
Rp426
tp427
a(F43.49615985787524
g17
(g21
S'\xe1\xcc\xcc\xcc\xcc\x0cD@'
p428
tp429
Rp430
tp431
a(F41.95520733810282
g17
(g21
S'\xae\x99\x99\x99\x99\x19D@'
p432
tp433
Rp434
tp435
a(F40.2948023384742
g17
(g21
S'{ffff&D@'
p436
tp437
Rp438
tp439
a(F38.531535076888765
g17
(g21
S'H33333D@'
p440
tp441
Rp442
tp443
a(F36.6830235369656
g17
(g21
S'\x15\x00\x00\x00\x00@D@'
p444
tp445
Rp446
tp447
a(F34.76773743497494
g17
(g21
S'\xe2\xcc\xcc\xcc\xccLD@'
p448
tp449
Rp450
tp451
a(F32.80481367653848
g17
(g21
S'\xaf\x99\x99\x99\x99YD@'
p452
tp453
Rp454
tp455
a(F30.813865146994175
g17
(g21
S'|fffffD@'
p456
tp457
Rp458
tp459
a(F28.814784745929153
g17
(g21
S'I3333sD@'
p460
tp461
Rp462
tp463
a(F26.827546623902734
g17
(g21
S'\x16\x00\x00\x00\x00\x80D@'
p464
tp465
Rp466
tp467
a(F24.872006607336616
g17
(g21
S'\xe3\xcc\xcc\xcc\xcc\x8cD@'
p468
tp469
Rp470
tp471
a(F22.967703805660747
g17
(g21
S'\xb0\x99\x99\x99\x99\x99D@'
p472
tp473
Rp474
tp475
a(F21.133665382990653
g17
(g21
S'}ffff\xa6D@'
p476
tp477
Rp478
tp479
a(F19.38821644499316
g17
(g21
S'J3333\xb3D@'
p480
tp481
Rp482
tp483
a(F17.74879694048802
g17
(g21
S'\x17\x00\x00\x00\x00\xc0D@'
p484
tp485
Rp486
tp487
a(F16.231787407244223
g17
(g21
S'\xe4\xcc\xcc\xcc\xcc\xccD@'
p488
tp489
Rp490
tp491
a(F14.852345303061252
g17
(g21
S'\xb1\x99\x99\x99\x99\xd9D@'
p492
tp493
Rp494
tp495
a(F13.62425355746117
g17
(g21
S'~ffff\xe6D@'
p496
tp497
Rp498
tp499
a(F12.559782857212856
g17
(g21
S'K3333\xf3D@'
p500
tp501
Rp502
tp503
a(F11.66956904168596
g17
(g21
S'\x18\x00\x00\x00\x00\x00E@'
p504
tp505
Rp506
tp507
a(F10.962506833059663
g17
(g21
S'\xe5\xcc\xcc\xcc\xcc\x0cE@'
p508
tp509
Rp510
tp511
a(F10.445660963198865
g17
(g21
S'\xb2\x99\x99\x99\x99\x19E@'
p512
tp513
Rp514
tp515
a(F10.124195585188687
g17
(g21
S'\x7fffff&E@'
p516
tp517
Rp518
tp519
a(F10.001322674823886
g17
(g21
S'L33333E@'
p520
tp521
Rp522
tp523
a(F10.078269937608436
g17
(g21
S'\x19\x00\x00\x00\x00@E@'
p524
tp525
Rp526
tp527
a(F10.354268541927976
g17
(g21
S'\xe6\xcc\xcc\xcc\xccLE@'
p528
tp529
Rp530
tp531
a(F10.826560800961158
g17
(g21
S'\xb3\x99\x99\x99\x99YE@'
p532
tp533
Rp534
tp535
a(F11.490427726574787
g17
(g21
S'\x80fffffE@'
p536
tp537
Rp538
tp539
a(F12.339236179893359
g17
(g21
S'M3333sE@'
p540
tp541
Rp542
tp543
a(F13.364505147430087
g17
(g21
S'\x1a\x00\x00\x00\x00\x80E@'
p544
tp545
Rp546
tp547
a(F14.555990480570202
g17
(g21
S'\xe7\xcc\xcc\xcc\xcc\x8cE@'
p548
tp549
Rp550
tp551
a(F15.901787251717659
g17
(g21
S'\xb4\x99\x99\x99\x99\x99E@'
p552
tp553
Rp554
tp555
a(F17.388448704396417
g17
(g21
S'\x81ffff\xa6E@'
p556
tp557
Rp558
tp559
a(F19.00112060879625
g17
(g21
S'N3333\xb3E@'
p560
tp561
Rp562
tp563
a(F20.72368968032685
g17
(g21
S'\x1b\x00\x00\x00\x00\xc0E@'
p564
tp565
Rp566
tp567
a(F22.538944578231117
g17
(g21
S'\xe8\xcc\xcc\xcc\xcc\xccE@'
p568
tp569
Rp570
tp571
a(F24.42874787561268
g17
(g21
S'\xb5\x99\x99\x99\x99\xd9E@'
p572
tp573
Rp574
tp575
a(F26.37421728261002
g17
(g21
S'\x82ffff\xe6E@'
p576
tp577
Rp578
tp579
a(F28.355914311995097
g17
(g21
S'O3333\xf3E@'
p580
tp581
Rp582
tp583
a(F30.35403850211225
g17
(g21
S'\x1c\x00\x00\x00\x00\x00F@'
p584
tp585
Rp586
tp587
a(F32.348625256545866
g17
(g21
S'\xe9\xcc\xcc\xcc\xcc\x0cF@'
p588
tp589
Rp590
tp591
a(F34.319745323768366
g17
(g21
S'\xb6\x99\x99\x99\x99\x19F@'
p592
tp593
Rp594
tp595
a(F36.24770392363373
g17
(g21
S'\x83ffff&F@'
p596
tp597
Rp598
tp599
a(F38.113237531110485
g17
(g21
S'P33333F@'
p600
tp601
Rp602
tp603
a(F39.897706351056144
g17
(g21
S'\x1d\x00\x00\x00\x00@F@'
p604
tp605
Rp606
tp607
a(F41.58328056088878
g17
(g21
S'\xea\xcc\xcc\xcc\xccLF@'
p608
tp609
Rp610
tp611
a(F43.153118460280496
g17
(g21
S'\xb7\x99\x99\x99\x99YF@'
p612
tp613
Rp614
tp615
a(F44.59153474785999
g17
(g21
S'\x84fffffF@'
p616
tp617
Rp618
tp619
a(F45.884157243558974
g17
(g21
S'Q3333sF@'
p620
tp621
Rp622
tp623
a(F47.01807049068461
g17
(g21
S'\x1e\x00\x00\x00\x00\x80F@'
p624
tp625
Rp626
tp627
a(F47.98194480289351
g17
(g21
S'\xeb\xcc\xcc\xcc\xcc\x8cF@'
p628
tp629
Rp630
tp631
a(F48.76614946667256
g17
(g21
S'\xb8\x99\x99\x99\x99\x99F@'
p632
tp633
Rp634
tp635
a(F49.36284896824489
g17
(g21
S'\x85ffff\xa6F@'
p636
tp637
Rp638
tp639
a(F49.76608128343341
g17
(g21
S'R3333\xb3F@'
p640
tp641
Rp642
tp643
a(F49.97181744823564
g17
(g21
S'\x1f\x00\x00\x00\x00\xc0F@'
p644
tp645
Rp646
tp647
a(F49.97800181490021
g17
(g21
S'\xec\xcc\xcc\xcc\xcc\xccF@'
p648
tp649
Rp650
tp651
a(F49.7845725912797
g17
(g21
S'\xb9\x99\x99\x99\x99\xd9F@'
p652
tp653
Rp654
tp655
a(F49.39346245823731
g17
(g21
S'\x86ffff\xe6F@'
p656
tp657
Rp658
tp659
a(F48.80857925893857
g17
(g21
S'S3333\xf3F@'
p660
tp661
Rp662
tp663
a(F48.03576695297422
g17
(g21
S' \x00\x00\x00\x00\x00G@'
p664
tp665
Rp666
tp667
a(F47.08274722544765
g17
(g21
S'\xed\xcc\xcc\xcc\xcc\x0cG@'
p668
tp669
Rp670
tp671
a(F45.959042334449876
g17
(g21
S'\xba\x99\x99\x99\x99\x19G@'
p672
tp673
Rp674
tp675
a(F44.67587996780429
g17
(g21
S'\x87ffff&G@'
p676
tp677
Rp678
tp679
a(F43.24608105972135
g17
(g21
S'T33333G@'
p680
tp681
Rp682
tp683
a(F41.68393168826191
g17
(g21
S'!\x00\x00\x00\x00@G@'
p684
tp685
Rp686
tp687
a(F40.00504033356768
g17
(g21
S'\xee\xcc\xcc\xcc\xccLG@'
p688
tp689
Rp690
tp691
a(F38.22618192308707
g17
(g21
S'\xbb\x99\x99\x99\x99YG@'
p692
tp693
Rp694
tp695
a(F36.36513022204518
g17
(g21
S'\x88fffffG@'
p696
tp697
Rp698
tp699
a(F34.44048024385694
g17
(g21
S'U3333sG@'
p700
tp701
Rp702
tp703
a(F32.47146245489969
g17
(g21
S'"\x00\x00\x00\x00\x80G@'
p704
tp705
Rp706
tp707
a(F30.477750630049947
g17
(g21
S'\xef\xcc\xcc\xcc\xcc\x8cG@'
p708
tp709
Rp710
tp711
a(F28.479265278828112
g17
(g21
S'\xbc\x99\x99\x99\x99\x99G@'
p712
tp713
Rp714
tp715
a(F26.49597460625216
g17
(g21
S'\x89ffff\xa6G@'
p716
tp717
Rp718
tp719
a(F24.54769499713374
g17
(g21
S'V3333\xb3G@'
p720
tp721
Rp722
tp723
a(F22.653893017311546
g17
(g21
S'#\x00\x00\x00\x00\xc0G@'
p724
tp725
Rp726
tp727
a(F20.833490910160265
g17
(g21
S'\xf0\xcc\xcc\xcc\xcc\xccG@'
p728
tp729
Rp730
tp731
a(F19.104677531789605
g17
(g21
S'\xbd\x99\x99\x99\x99\xd9G@'
p732
tp733
Rp734
tp735
a(F17.48472661400654
g17
(g21
S'\x8affff\xe6G@'
p736
tp737
Rp738
tp739
a(F15.989824170896965
g17
(g21
S'W3333\xf3G@'
p740
tp741
Rp742
tp743
a(F14.634906773523388
g17
(g21
S'$\x00\x00\x00\x00\x00H@'
p744
tp745
Rp746
tp747
a(F13.433512308644225
g17
(g21
S'\xf1\xcc\xcc\xcc\xcc\x0cH@'
p748
tp749
Rp750
tp751
a(F12.39764471262433
g17
(g21
S'\xbe\x99\x99\x99\x99\x19H@'
p752
tp753
Rp754
tp755
a(F11.53765403207084
g17
(g21
S'\x8bffff&H@'
p756
tp757
Rp758
tp759
a(F10.862133009588717
g17
(g21
S'X33333H@'
p760
tp761
Rp762
tp763
a(F10.377831227937044
g17
(g21
S'%\x00\x00\x00\x00@H@'
p764
tp765
Rp766
tp767
a(F10.089587670429193
g17
(g21
S'\xf2\xcc\xcc\xcc\xccLH@'
p768
tp769
Rp770
tp771
a(F10.000282371411139
g17
(g21
S'\xbf\x99\x99\x99\x99YH@'
p772
tp773
Rp774
tp775
a(F10.11080763991026
g17
(g21
S'\x8cfffffH@'
p776
tp777
Rp778
tp779
a(F10.420059143978506
g17
(g21
S'Y3333sH@'
p780
tp781
Rp782
tp783
a(F10.924946944812184
g17
(g21
S'&\x00\x00\x00\x00\x80H@'
p784
tp785
Rp786
tp787
a(F11.620426370399088
g17
(g21
S'\xf3\xcc\xcc\xcc\xcc\x8cH@'
p788
tp789
Rp790
tp791
a(F12.499548420213678
g17
(g21
S'\xc0\x99\x99\x99\x99\x99H@'
p792
tp793
Rp794
tp795
a(F13.553529197333326
g17
(g21
S'\x8dffff\xa6H@'
p796
tp797
Rp798
tp799
a(F14.771837674232774
g17
(g21
S'Z3333\xb3H@'
p800
tp801
Rp802
tp803
a(F16.142300915330082
g17
(g21
S"'\x00\x00\x00\x00\xc0H@"
p804
tp805
Rp806
tp807
a(F17.651225704935122
g17
(g21
S'\xf4\xcc\xcc\xcc\xcc\xccH@'
p808
tp809
Rp810
tp811
a(F19.283535365334384
g17
(g21
S'\xc1\x99\x99\x99\x99\xd9H@'
p812
tp813
Rp814
tp815
a(F21.02292039797099
g17
(g21
S'\x8effff\xe6H@'
p816
tp817
Rp818
tp819
a(F22.852001442563083
g17
(g21
S'[3333\xf3H@'
p820
tp821
Rp822
tp823
a(F24.75250292592691
g17
(g21
S'(\x00\x00\x00\x00\x00I@'
p824
tp825
Rp826
tp827
a(F26.705435665462964
g17
(g21
S'\xf5\xcc\xcc\xcc\xcc\x0cI@'
p828
tp829
Rp830
tp831
a(F28.691286602791532
g17
(g21
S'\xc2\x99\x99\x99\x99\x19I@'
p832
tp833
Rp834
tp835
a(F30.690213771781877
g17
(g21
S'\x8fffff&I@'
p836
tp837
Rp838
tp839
a(F32.68224455291892
g17
(g21
S'\\33333I@'
p840
tp841
Rp842
tp843
a(F34.64747523311536
g17
(g21
S')\x00\x00\x00\x00@I@'
p844
tp845
Rp846
tp847
a(F36.56626987703357
g17
(g21
S'\xf6\xcc\xcc\xcc\xccLI@'
p848
tp849
Rp850
tp851
a(F38.419456522860706
g17
(g21
S'\xc3\x99\x99\x99\x99YI@'
p852
tp853
Rp854
tp855
a(F40.188518742213724
g17
(g21
S'\x90fffffI@'
p856
tp857
Rp858
tp859
a(F41.855780650171056
g17
(g21
S']3333sI@'
p860
tp861
Rp862
tp863
a(F43.404583516871924
g17
(g21
S'*\x00\x00\x00\x00\x80I@'
p864
tp865
Rp866
tp867
a(F44.8194522160384
g17
(g21
S'\xf7\xcc\xcc\xcc\xcc\x8cI@'
p868
tp869
Rp870
tp871
a(F46.086249847321824
g17
(g21
S'\xc4\x99\x99\x99\x99\x99I@'
p872
tp873
Rp874
tp875
a(F47.192318987538044
g17
(g21
S'\x91ffff\xa6I@'
p876
tp877
Rp878
tp879
a(F48.126608159455856
g17
(g21
S'^3333\xb3I@'
p880
tp881
Rp882
tp883
a(F48.879782254504406
g17
(g21
S'+\x00\x00\x00\x00\xc0I@'
p884
tp885
Rp886
tp887
a(F49.444315806092206
g17
(g21
S'\xf8\xcc\xcc\xcc\xcc\xccI@'
p888
tp889
Rp890
tp891
a(F49.81456818158179
g17
(g21
S'\xc5\x99\x99\x99\x99\xd9I@'
p892
tp893
Rp894
tp895
a(F49.98683994162643
g17
(g21
S'\x92ffff\xe6I@'
p896
tp897
Rp898
tp899
a(F49.959409803745224
g17
(g21
S'_3333\xf3I@'
p900
tp901
Rp902
tp903
a(F49.73255184080869
g17
(g21
S',\x00\x00\x00\x00\x00J@'
p904
tp905
Rp906
tp907
a(F49.3085327425932
g17
(g21
S'\xf9\xcc\xcc\xcc\xcc\x0cJ@'
p908
tp909
Rp910
tp911
a(F48.69158916776607
g17
(g21
S'\xc6\x99\x99\x99\x99\x19J@'
p912
tp913
Rp914
tp915
a(F47.887885412592524
g17
(g21
S'\x93ffff&J@'
p916
tp917
Rp918
tp919
a(F46.90545181932512
g17
(g21
S'`33333J@'
p920
tp921
Rp922
tp923
a(F45.754104539678416
g17
(g21
S'-\x00\x00\x00\x00@J@'
p924
tp925
Rp926
tp927
a(F44.44534745508584
g17
(g21
S'\xfa\xcc\xcc\xcc\xccLJ@'
p928
tp929
Rp930
tp931
a(F42.99225723371905
g17
(g21
S'\xc7\x99\x99\x99\x99YJ@'
p932
tp933
Rp934
tp935
a(F41.409352672742195
g17
(g21
S'\x94fffffJ@'
p936
tp937
Rp938
tp939
a(F39.712449631289864
g17
(g21
S'a3333sJ@'
p940
tp941
Rp942
tp943
a(F37.91850300363068
g17
(g21
S'.\x00\x00\x00\x00\x80J@'
p944
tp945
Rp946
tp947
a(F36.045437311468305
g17
(g21
S'\xfb\xcc\xcc\xcc\xcc\x8cJ@'
p948
tp949
Rp950
tp951
a(F34.111967608045624
g17
(g21
S'\xc8\x99\x99\x99\x99\x99J@'
p952
tp953
Rp954
tp955
a(F32.13741248351913
g17
(g21
S'\x95ffff\xa6J@'
p956
tp957
Rp958
tp959
a(F30.14150103999194
g17
(g21
S'b3333\xb3J@'
p960
tp961
Rp962
tp963
a(F28.144175764847176
g17
(g21
S'/\x00\x00\x00\x00\xc0J@'
p964
tp965
Rp966
tp967
a(F26.165393272006128
g17
(g21
S'\xfc\xcc\xcc\xcc\xcc\xccJ@'
p968
tp969
Rp970
tp971
a(F24.224924902038737
g17
(g21
S'\xc9\x99\x99\x99\x99\xd9J@'
p972
tp973
Rp974
tp975
a(F22.342159173464154
g17
(g21
S'\x96ffff\xe6J@'
p976
tp977
Rp978
tp979
a(F20.535908059082693
g17
(g21
S'c3333\xf3J@'
p980
tp981
Rp982
tp983
a(F18.82421902296202
g17
(g21
S'0\x00\x00\x00\x00\x00K@'
p984
tp985
Rp986
tp987
a(F17.22419469614188
g17
(g21
S'\xfd\xcc\xcc\xcc\xcc\x0cK@'
p988
tp989
Rp990
tp991
a(F15.751821992798131
g17
(g21
S'\xca\x99\x99\x99\x99\x19K@'
p992
tp993
Rp994
tp995
a(F14.42181237428089
g17
(g21
S'\x97ffff&K@'
p996
tp997
Rp998
tp999
a(F13.247454857055644
g17
(g21
S'd33333K@'
p1000
tp1001
Rp1002
tp1003
a(F12.24048323324353
g17
(g21
S'1\x00\x00\x00\x00@K@'
p1004
tp1005
Rp1006
tp1007
a(F11.410958830449111
g17
(g21
S'\xfe\xcc\xcc\xcc\xccLK@'
p1008
tp1009
Rp1010
tp1011
a(F10.7671699823008
g17
(g21
S'\xcb\x99\x99\x99\x99YK@'
p1012
tp1013
Rp1014
tp1015
a(F10.315549214160992
g17
(g21
S'\x98fffffK@'
p1016
tp1017
Rp1018
tp1019
a(F10.060608971458965
g17
(g21
S'e3333sK@'
p1020
tp1021
Rp1022
tp1023
a(F10.004896532827761
g17
(g21
S'2\x00\x00\x00\x00\x80K@'
p1024
tp1025
Rp1026
tp1027
a(F10.14896855853809
g17
(g21
S'\xff\xcc\xcc\xcc\xcc\x8cK@'
p1028
tp1029
Rp1030
tp1031
a(F10.491385528532945
g17
(g21
S'\xcc\x99\x99\x99\x99\x99K@'
p1032
tp1033
Rp1034
tp1035
a(F11.028726125636133
g17
(g21
S'\x99ffff\xa6K@'
p1036
tp1037
Rp1038
tp1039
a(F11.755621420222585
g17
(g21
S'f3333\xb3K@'
p1040
tp1041
Rp1042
tp1043
a(F12.66480851478843
g17
(g21
S'3\x00\x00\x00\x00\xc0K@'
p1044
tp1045
Rp1046
tp1047
a(F13.747203112422067
g17
(g21
S'\x00\xcd\xcc\xcc\xcc\xccK@'
p1048
tp1049
Rp1050
tp1051
a(F14.991990284096017
g17
(g21
S'\xcd\x99\x99\x99\x99\xd9K@'
p1052
tp1053
Rp1054
tp1055
a(F16.386732527862854
g17
(g21
S'\x9affff\xe6K@'
p1056
tp1057
Rp1058
tp1059
a(F17.917494040263346
g17
(g21
S'g3333\xf3K@'
p1060
tp1061
Rp1062
tp1063
a(F19.568979958268066
g17
(g21
S'4\x00\x00\x00\x00\x00L@'
p1064
tp1065
Rp1066
tp1067
a(F21.324689180492978
g17
(g21
S'\x01\xcd\xcc\xcc\xcc\x0cL@'
p1068
tp1069
Rp1070
tp1071
a(F23.167079240749914
g17
(g21
S'\xce\x99\x99\x99\x99\x19L@'
p1072
tp1073
Rp1074
tp1075
a(F25.077741586569974
g17
(g21
S'\x9bffff&L@'
p1076
tp1077
Rp1078
tp1079
a(F27.037585511374722
g17
(g21
S'h33333L@'
p1080
tp1081
Rp1082
tp1083
a(F29.027028902505776
g17
(g21
S'5\x00\x00\x00\x00@L@'
p1084
tp1085
Rp1086
tp1087
a(F31.02619389922151
g17
(g21
S'\x02\xcd\xcc\xcc\xccLL@'
p1088
tp1089
Rp1090
tp1091
a(F33.01510550571083
g17
(g21
S'\xcf\x99\x99\x99\x99YL@'
p1092
tp1093
Rp1094
tp1095
a(F34.97389117464845
g17
(g21
S'\x9cfffffL@'
p1096
tp1097
Rp1098
tp1099
a(F36.882979367118814
g17
(g21
S'i3333sL@'
p1100
tp1101
Rp1102
tp1103
a(F38.723295104963405
g17
(g21
S'6\x00\x00\x00\x00\x80L@'
p1104
tp1105
Rp1106
tp1107
a(F40.47645056165719
g17
(g21
S'\x03\xcd\xcc\xcc\xcc\x8cL@'
p1108
tp1109
Rp1110
tp1111
a(F42.12492878739302
g17
(g21
S'\xd0\x99\x99\x99\x99\x99L@'
p1112
tp1113
Rp1114
tp1115
a(F43.6522587326538
g17
(g21
S'\x9dffff\xa6L@'
p1116
tp1117
Rp1118
tp1119
a(F45.04317982149464
g17
(g21
S'j3333\xb3L@'
p1120
tp1121
Rp1122
tp1123
a(F46.28379443017323
g17
(g21
S'7\x00\x00\x00\x00\xc0L@'
p1124
tp1125
Rp1126
tp1127
a(F47.36170674761231
g17
(g21
S'\x04\xcd\xcc\xcc\xcc\xccL@'
p1128
tp1129
Rp1130
tp1131
a(F48.266146630246475
g17
(g21
S'\xd1\x99\x99\x99\x99\xd9L@'
p1132
tp1133
Rp1134
tp1135
a(F48.988077213736524
g17
(g21
S'\x9effff\xe6L@'
p1136
tp1137
Rp1138
tp1139
a(F49.52028520633074
g17
(g21
S'k3333\xf3L@'
p1140
tp1141
Rp1142
tp1143
a(F49.85745296169169
g17
(g21
S'8\x00\x00\x00\x00\x00M@'
p1144
tp1145
Rp1146
tp1147
a(F49.99621161106066
g17
(g21
S'\x05\xcd\xcc\xcc\xcc\x0cM@'
p1148
tp1149
Rp1150
tp1151
a(F49.935174723880664
g17
(g21
S'\xd2\x99\x99\x99\x99\x19M@'
p1152
tp1153
Rp1154
tp1155
a(F49.67495216055229
g17
(g21
S'\x9fffff&M@'
p1156
tp1157
Rp1158
tp1159
a(F49.21814397891016
g17
(g21
S'l33333M@'
p1160
tp1161
Rp1162
tp1163
a(F48.569314455304564
g17
(g21
S'9\x00\x00\x00\x00@M@'
p1164
tp1165
Rp1166
tp1167
a(F47.73494647986082
g17
(g21
S'\x06\xcd\xcc\xcc\xccLM@'
p1168
tp1169
Rp1170
tp1171
a(F46.72337678158418
g17
(g21
S'\xd3\x99\x99\x99\x99YM@'
p1172
tp1173
Rp1174
tp1175
a(F45.54471263051934
g17
(g21
S'\xa0fffffM@'
p1176
tp1177
Rp1178
tp1179
a(F44.21073084924919
g17
(g21
S'm3333sM@'
p1180
tp1181
Rp1182
tp1183
a(F42.7347601427764
g17
(g21
S':\x00\x00\x00\x00\x80M@'
p1184
tp1185
Rp1186
tp1187
a(F41.13154792250903
g17
(g21
S'\x07\xcd\xcc\xcc\xcc\x8cM@'
p1188
tp1189
Rp1190
tp1191
a(F39.41711295500046
g17
(g21
S'\xd4\x99\x99\x99\x99\x99M@'
p1192
tp1193
Rp1194
tp1195
a(F37.60858530772921
g17
(g21
S'\xa1ffff\xa6M@'
p1196
tp1197
Rp1198
tp1199
a(F35.72403519112704
g17
(g21
S'n3333\xb3M@'
p1200
tp1201
Rp1202
tp1203
a(F33.7822924070096
g17
(g21
S';\x00\x00\x00\x00\xc0M@'
p1204
tp1205
Rp1206
tp1207
a(F31.802758207420958
g17
(g21
S'\x08\xcd\xcc\xcc\xcc\xccM@'
p1208
tp1209
Rp1210
tp1211
a(F29.805211443736404
g17
(g21
S'\xd5\x99\x99\x99\x99\xd9M@'
p1212
tp1213
Rp1214
tp1215
a(F27.8096109429175
g17
(g21
S'\xa2ffff\xe6M@'
p1216
tp1217
Rp1218
tp1219
a(F25.83589608551061
g17
(g21
S'o3333\xf3M@'
p1220
tp1221
Rp1222
tp1223
asbsS'settings'
p1224
(dp1225
S'name'
p1226
csip
_unpickle_type
p1227
(S'PyQt4.QtCore'
p1228
S'QString'
p1229
(VUnnamed Toolpath
p1230
tp1231
tp1232
Rp1233
sS'tool'
p1234
I3
sS'feedMode'
p1235
I0
sS'feedValue'
p1236
F10.0
sS'speedValue'
p1237
I2000
sS'speedMode'
p1238
I0
sS'finalPassDepth'
p1239
F0.2
sS'cutDepth'
p1240
F0.5
ssbasS'fileStructureVersion'
p1241
S'2013-12-26'
p1242
s.