(dp0
S'globalSettings'
p1
(dp2
S'flightDistance'
p3
F20.0
sS'materialDiameter'
p4
F100.0
sS'curveTolerance'
p5
F0.1
sS'materialLength'
p6
F60.0
sS'approachDistance'
p7
F2.0
sS'postprocessorId'
p8
I1
ssS'toolpaths'
p9
(lp10
(itoolpath.ZParallelToolpath
ZParallelToolpath
p11
(dp12
S'shape'
p13
(iShape
DemoShape
p14
(dp15
S'points'
p16
(lp17
(F10.239367518142764
cnumpy.core.multiarray
scalar
p18
(cnumpy
dtype
p19
(S'f8'
p20
I0
I1
tp21
Rp22
(I3
S'<'
p23
NNNI-1
I-1
I0
tp24
bS'\x00\x00\x00\x00\x00\x00>@'
p25
tp26
Rp27
tp28
a(F10.646077357323897
g18
(g22
S'\x9a\x99\x99\x99\x99\x19>@'
p29
tp30
Rp31
tp32
a(F11.2461651939944
g18
(g22
S'433333>@'
p33
tp34
Rp35
tp36
a(F12.033635148852937
g18
(g22
S'\xce\xcc\xcc\xcc\xccL>@'
p37
tp38
Rp39
tp40
a(F13.000619082413515
g18
(g22
S'hfffff>@'
p41
tp42
Rp43
tp44
a(F14.137455210854384
g18
(g22
S'\x02\x00\x00\x00\x00\x80>@'
p45
tp46
Rp47
tp48
a(F15.43278464336823
g18
(g22
S'\x9c\x99\x99\x99\x99\x99>@'
p49
tp50
Rp51
tp52
a(F16.87366487644435
g18
(g22
S'63333\xb3>@'
p53
tp54
Rp55
tp56
a(F18.44569911108554
g18
(g22
S'\xd0\xcc\xcc\xcc\xcc\xcc>@'
p57
tp58
Rp59
tp60
a(F20.13318010086468
g18
(g22
S'jffff\xe6>@'
p61
tp62
Rp63
tp64
a(F21.91924709353896
g18
(g22
S'\x04\x00\x00\x00\x00\x00?@'
p65
tp66
Rp67
tp68
a(F23.786054298112823
g18
(g22
S'\x9e\x99\x99\x99\x99\x19?@'
p69
tp70
Rp71
tp72
a(F25.714949194082592
g18
(g22
S'833333?@'
p73
tp74
Rp75
tp76
a(F27.686658901255615
g18
(g22
S'\xd2\xcc\xcc\xcc\xccL?@'
p77
tp78
Rp79
tp80
a(F29.68148274799839
g18
(g22
S'lfffff?@'
p81
tp82
Rp83
tp84
a(F31.679489113835363
g18
(g22
S'\x06\x00\x00\x00\x00\x80?@'
p85
tp86
Rp87
tp88
a(F33.660714579612176
g18
(g22
S'\xa0\x99\x99\x99\x99\x99?@'
p89
tp90
Rp91
tp92
a(F35.60536339538087
g18
(g22
S':3333\xb3?@'
p93
tp94
Rp95
tp96
a(F37.4940052729897
g18
(g22
S'\xd4\xcc\xcc\xcc\xcc\xcc?@'
p97
tp98
Rp99
tp100
a(F39.30776952709961
g18
(g22
S'nffff\xe6?@'
p101
tp102
Rp103
tp104
a(F41.02853362483428
g18
(g22
S'\x04\x00\x00\x00\x00\x00@@'
p105
tp106
Rp107
tp108
a(F42.63910426013814
g18
(g22
S'\xd1\xcc\xcc\xcc\xcc\x0c@@'
p109
tp110
Rp111
tp112
a(F44.12338914360709
g18
(g22
S'\x9e\x99\x99\x99\x99\x19@@'
p113
tp114
Rp115
tp116
a(F45.46655779132486
g18
(g22
S'kffff&@@'
p117
tp118
Rp119
tp120
a(F46.65518970615599
g18
(g22
S'833333@@'
p121
tp122
Rp123
tp124
a(F47.677408470916944
g18
(g22
S'\x05\x00\x00\x00\x00@@@'
p125
tp126
Rp127
tp128
a(F48.52300041361084
g18
(g22
S'\xd2\xcc\xcc\xcc\xccL@@'
p129
tp130
Rp131
tp132
a(F49.18351665906181
g18
(g22
S'\x9f\x99\x99\x99\x99Y@@'
p133
tp134
Rp135
tp136
a(F49.652357547282946
g18
(g22
S'lfffff@@'
p137
tp138
Rp139
tp140
a(F49.92483857509735
g18
(g22
S'93333s@@'
p141
tp142
Rp143
tp144
a(F49.99823720214533
g18
(g22
S'\x06\x00\x00\x00\x00\x80@@'
p145
tp146
Rp147
tp148
a(F49.871820053607806
g18
(g22
S'\xd3\xcc\xcc\xcc\xcc\x8c@@'
p149
tp150
Rp151
tp152
a(F49.546850247844986
g18
(g22
S'\xa0\x99\x99\x99\x99\x99@@'
p153
tp154
Rp155
tp156
a(F49.02657477573535
g18
(g22
S'mffff\xa6@@'
p157
tp158
Rp159
tp160
a(F48.31619205781598
g18
(g22
S':3333\xb3@@'
p161
tp162
Rp163
tp164
a(F47.42280000338304
g18
(g22
S'\x07\x00\x00\x00\x00\xc0@@'
p165
tp166
Rp167
tp168
a(F46.35532509052827
g18
(g22
S'\xd4\xcc\xcc\xcc\xcc\xcc@@'
p169
tp170
Rp171
tp172
a(F45.12443317572061
g18
(g22
S'\xa1\x99\x99\x99\x99\xd9@@'
p173
tp174
Rp175
tp176
a(F43.74242292409406
g18
(g22
S'nffff\xe6@@'
p177
tp178
Rp179
tp180
a(F42.22310292525102
g18
(g22
S';3333\xf3@@'
p181
tp182
Rp183
tp184
a(F40.58165372239951
g18
(g22
S'\x08\x00\x00\x00\x00\x00A@'
p185
tp186
Rp187
tp188
a(F38.834476133383454
g18
(g22
S'\xd5\xcc\xcc\xcc\xcc\x0cA@'
p189
tp190
Rp191
tp192
a(F36.99902737913218
g18
(g22
S'\xa2\x99\x99\x99\x99\x19A@'
p193
tp194
Rp195
tp196
a(F35.093646656879464
g18
(g22
S'offff&A@'
p197
tp198
Rp199
tp200
a(F33.13737190096694
g18
(g22
S'<33333A@'
p201
tp202
Rp203
tp204
a(F31.149749562097213
g18
(g22
S'\t\x00\x00\x00\x00@A@'
p205
tp206
Rp207
tp208
a(F29.15063930565969
g18
(g22
S'\xd6\xcc\xcc\xcc\xccLA@'
p209
tp210
Rp211
tp212
a(F27.1600155805187
g18
(g22
S'\xa3\x99\x99\x99\x99YA@'
p213
tp214
Rp215
tp216
a(F25.19776804092313
g18
(g22
S'pfffffA@'
p217
tp218
Rp219
tp220
a(F23.283502815655822
g18
(g22
S'=3333sA@'
p221
tp222
Rp223
tp224
a(F21.436346610075695
g18
(g22
S'\n\x00\x00\x00\x00\x80A@'
p225
tp226
Rp227
tp228
a(F19.674755598400242
g18
(g22
S'\xd7\xcc\xcc\xcc\xcc\x8cA@'
p229
tp230
Rp231
tp232
a(F18.016331015713558
g18
(g22
S'\xa4\x99\x99\x99\x99\x99A@'
p233
tp234
Rp235
tp236
a(F16.477643292243563
g18
(g22
S'qffff\xa6A@'
p237
tp238
Rp239
tp240
a(F15.074066487100634
g18
(g22
S'>3333\xb3A@'
p241
tp242
Rp243
tp244
a(F13.819624675760952
g18
(g22
S'\x0b\x00\x00\x00\x00\xc0A@'
p245
tp246
Rp247
tp248
a(F12.726851826140091
g18
(g22
S'\xd8\xcc\xcc\xcc\xcc\xccA@'
p249
tp250
Rp251
tp252
a(F11.806666563328786
g18
(g22
S'\xa5\x99\x99\x99\x99\xd9A@'
p253
tp254
Rp255
tp256
a(F11.06826307430024
g18
(g22
S'rffff\xe6A@'
p257
tp258
Rp259
tp260
a(F10.519019242633085
g18
(g22
S'?3333\xf3A@'
p261
tp262
Rp263
tp264
a(F10.164422931137466
g18
(g22
S'\x0c\x00\x00\x00\x00\x00B@'
p265
tp266
Rp267
tp268
a(F10.008017148943892
g18
(g22
S'\xd9\xcc\xcc\xcc\xcc\x0cB@'
p269
tp270
Rp271
tp272
a(F10.051364650927162
g18
(g22
S'\xa6\x99\x99\x99\x99\x19B@'
p273
tp274
Rp275
tp276
a(F10.29403232317624
g18
(g22
S'sffff&B@'
p277
tp278
Rp279
tp280
a(F10.73359551052528
g18
(g22
S'@33333B@'
p281
tp282
Rp283
tp284
a(F11.36566224290656
g18
(g22
S'\r\x00\x00\x00\x00@B@'
p285
tp286
Rp287
tp288
a(F12.183917118463611
g18
(g22
S'\xda\xcc\xcc\xcc\xccLB@'
p289
tp290
Rp291
tp292
a(F13.180184404958968
g18
(g22
S'\xa7\x99\x99\x99\x99YB@'
p293
tp294
Rp295
tp296
a(F14.34450972898815
g18
(g22
S'tfffffB@'
p297
tp298
Rp299
tp300
a(F15.665259536788236
g18
(g22
S'A3333sB@'
p301
tp302
Rp303
tp304
a(F17.129237332861535
g18
(g22
S'\x0e\x00\x00\x00\x00\x80B@'
p305
tp306
Rp307
tp308
a(F18.721815534996395
g18
(g22
S'\xdb\xcc\xcc\xcc\xcc\x8cB@'
p309
tp310
Rp311
tp312
a(F20.42708162823345
g18
(g22
S'\xa8\x99\x99\x99\x99\x99B@'
p313
tp314
Rp315
tp316
a(F22.227997157455096
g18
(g22
S'uffff\xa6B@'
p317
tp318
Rp319
tp320
a(F24.106567969996885
g18
(g22
S'B3333\xb3B@'
p321
tp322
Rp323
tp324
a(F26.044024007272846
g18
(g22
S'\x0f\x00\x00\x00\x00\xc0B@'
p325
tp326
Rp327
tp328
a(F28.02100684899633
g18
(g22
S'\xdc\xcc\xcc\xcc\xcc\xccB@'
p329
tp330
Rp331
tp332
a(F30.017763136116482
g18
(g22
S'\xa9\x99\x99\x99\x99\xd9B@'
p333
tp334
Rp335
tp336
a(F32.01434193985227
g18
(g22
S'vffff\xe6B@'
p337
tp338
Rp339
tp340
a(F33.990794104777976
g18
(g22
S'C3333\xf3B@'
p341
tp342
Rp343
tp344
a(F35.92737157418988
g18
(g22
S'\x10\x00\x00\x00\x00\x00C@'
p345
tp346
Rp347
tp348
a(F37.80472470616102
g18
(g22
S'\xdd\xcc\xcc\xcc\xcc\x0cC@'
p349
tp350
Rp351
tp352
a(F39.604095608767174
g18
(g22
S'\xaa\x99\x99\x99\x99\x19C@'
p353
tp354
Rp355
tp356
a(F41.30750556274245
g18
(g22
S'wffff&C@'
p357
tp358
Rp359
tp360
a(F42.89793465889919
g18
(g22
S'D33333C@'
p361
tp362
Rp363
tp364
a(F44.35949185543457
g18
(g22
S'\x11\x00\x00\x00\x00@C@'
p365
tp366
Rp367
tp368
a(F45.67757375596736
g18
(g22
S'\xde\xcc\xcc\xcc\xccLC@'
p369
tp370
Rp371
tp372
a(F46.8390105218474
g18
(g22
S'\xab\x99\x99\x99\x99YC@'
p373
tp374
Rp375
tp376
a(F47.832197460829974
g18
(g22
S'xfffffC@'
p377
tp378
Rp379
tp380
a(F48.647210977324704
g18
(g22
S'E3333sC@'
p381
tp382
Rp383
tp384
a(F49.27590772568244
g18
(g22
S'\x12\x00\x00\x00\x00\x80C@'
p385
tp386
Rp387
tp388
a(F49.71200597581309
g18
(g22
S'\xdf\xcc\xcc\xcc\xcc\x8cC@'
p389
tp390
Rp391
tp392
a(F49.95114837815628
g18
(g22
S'\xac\x99\x99\x99\x99\x99C@'
p393
tp394
Rp395
tp396
a(F49.99094550087776
g18
(g22
S'yffff\xa6C@'
p397
tp398
Rp399
tp400
a(F49.83099970428247
g18
(g22
S'F3333\xb3C@'
p401
tp402
Rp403
tp404
a(F49.47290911389895
g18
(g22
S'\x13\x00\x00\x00\x00\xc0C@'
p405
tp406
Rp407
tp408
a(F48.92025165253729
g18
(g22
S'\xe0\xcc\xcc\xcc\xcc\xccC@'
p409
tp410
Rp411
tp412
a(F48.17854929086715
g18
(g22
S'\xad\x99\x99\x99\x99\xd9C@'
p413
tp414
Rp415
tp416
a(F47.25521287371214
g18
(g22
S'zffff\xe6C@'
p417
tp418
Rp419
tp420
a(F46.15946807333803
g18
(g22
S'G3333\xf3C@'
p421
tp422
Rp423
tp424
a(F44.90226320958508
g18
(g22
S'\x14\x00\x00\x00\x00\x00D@'
p425
tp426
Rp427
tp428
a(F43.49615985787524
g18
(g22
S'\xe1\xcc\xcc\xcc\xcc\x0cD@'
p429
tp430
Rp431
tp432
a(F41.95520733810282
g18
(g22
S'\xae\x99\x99\x99\x99\x19D@'
p433
tp434
Rp435
tp436
a(F40.2948023384742
g18
(g22
S'{ffff&D@'
p437
tp438
Rp439
tp440
a(F38.531535076888765
g18
(g22
S'H33333D@'
p441
tp442
Rp443
tp444
a(F36.6830235369656
g18
(g22
S'\x15\x00\x00\x00\x00@D@'
p445
tp446
Rp447
tp448
a(F34.76773743497494
g18
(g22
S'\xe2\xcc\xcc\xcc\xccLD@'
p449
tp450
Rp451
tp452
a(F32.80481367653848
g18
(g22
S'\xaf\x99\x99\x99\x99YD@'
p453
tp454
Rp455
tp456
a(F30.813865146994175
g18
(g22
S'|fffffD@'
p457
tp458
Rp459
tp460
a(F28.814784745929153
g18
(g22
S'I3333sD@'
p461
tp462
Rp463
tp464
a(F26.827546623902734
g18
(g22
S'\x16\x00\x00\x00\x00\x80D@'
p465
tp466
Rp467
tp468
a(F24.872006607336616
g18
(g22
S'\xe3\xcc\xcc\xcc\xcc\x8cD@'
p469
tp470
Rp471
tp472
a(F22.967703805660747
g18
(g22
S'\xb0\x99\x99\x99\x99\x99D@'
p473
tp474
Rp475
tp476
a(F21.133665382990653
g18
(g22
S'}ffff\xa6D@'
p477
tp478
Rp479
tp480
a(F19.38821644499316
g18
(g22
S'J3333\xb3D@'
p481
tp482
Rp483
tp484
a(F17.74879694048802
g18
(g22
S'\x17\x00\x00\x00\x00\xc0D@'
p485
tp486
Rp487
tp488
a(F16.231787407244223
g18
(g22
S'\xe4\xcc\xcc\xcc\xcc\xccD@'
p489
tp490
Rp491
tp492
a(F14.852345303061252
g18
(g22
S'\xb1\x99\x99\x99\x99\xd9D@'
p493
tp494
Rp495
tp496
a(F13.62425355746117
g18
(g22
S'~ffff\xe6D@'
p497
tp498
Rp499
tp500
a(F12.559782857212856
g18
(g22
S'K3333\xf3D@'
p501
tp502
Rp503
tp504
a(F11.66956904168596
g18
(g22
S'\x18\x00\x00\x00\x00\x00E@'
p505
tp506
Rp507
tp508
a(F10.962506833059663
g18
(g22
S'\xe5\xcc\xcc\xcc\xcc\x0cE@'
p509
tp510
Rp511
tp512
a(F10.445660963198865
g18
(g22
S'\xb2\x99\x99\x99\x99\x19E@'
p513
tp514
Rp515
tp516
a(F10.124195585188687
g18
(g22
S'\x7fffff&E@'
p517
tp518
Rp519
tp520
a(F10.001322674823886
g18
(g22
S'L33333E@'
p521
tp522
Rp523
tp524
a(F10.078269937608436
g18
(g22
S'\x19\x00\x00\x00\x00@E@'
p525
tp526
Rp527
tp528
a(F10.354268541927976
g18
(g22
S'\xe6\xcc\xcc\xcc\xccLE@'
p529
tp530
Rp531
tp532
a(F10.826560800961158
g18
(g22
S'\xb3\x99\x99\x99\x99YE@'
p533
tp534
Rp535
tp536
a(F11.490427726574787
g18
(g22
S'\x80fffffE@'
p537
tp538
Rp539
tp540
a(F12.339236179893359
g18
(g22
S'M3333sE@'
p541
tp542
Rp543
tp544
a(F13.364505147430087
g18
(g22
S'\x1a\x00\x00\x00\x00\x80E@'
p545
tp546
Rp547
tp548
a(F14.555990480570202
g18
(g22
S'\xe7\xcc\xcc\xcc\xcc\x8cE@'
p549
tp550
Rp551
tp552
a(F15.901787251717659
g18
(g22
S'\xb4\x99\x99\x99\x99\x99E@'
p553
tp554
Rp555
tp556
a(F17.388448704396417
g18
(g22
S'\x81ffff\xa6E@'
p557
tp558
Rp559
tp560
a(F19.00112060879625
g18
(g22
S'N3333\xb3E@'
p561
tp562
Rp563
tp564
a(F20.72368968032685
g18
(g22
S'\x1b\x00\x00\x00\x00\xc0E@'
p565
tp566
Rp567
tp568
a(F22.538944578231117
g18
(g22
S'\xe8\xcc\xcc\xcc\xcc\xccE@'
p569
tp570
Rp571
tp572
a(F24.42874787561268
g18
(g22
S'\xb5\x99\x99\x99\x99\xd9E@'
p573
tp574
Rp575
tp576
a(F26.37421728261002
g18
(g22
S'\x82ffff\xe6E@'
p577
tp578
Rp579
tp580
a(F28.355914311995097
g18
(g22
S'O3333\xf3E@'
p581
tp582
Rp583
tp584
a(F30.35403850211225
g18
(g22
S'\x1c\x00\x00\x00\x00\x00F@'
p585
tp586
Rp587
tp588
a(F32.348625256545866
g18
(g22
S'\xe9\xcc\xcc\xcc\xcc\x0cF@'
p589
tp590
Rp591
tp592
a(F34.319745323768366
g18
(g22
S'\xb6\x99\x99\x99\x99\x19F@'
p593
tp594
Rp595
tp596
a(F36.24770392363373
g18
(g22
S'\x83ffff&F@'
p597
tp598
Rp599
tp600
a(F38.113237531110485
g18
(g22
S'P33333F@'
p601
tp602
Rp603
tp604
a(F39.897706351056144
g18
(g22
S'\x1d\x00\x00\x00\x00@F@'
p605
tp606
Rp607
tp608
a(F41.58328056088878
g18
(g22
S'\xea\xcc\xcc\xcc\xccLF@'
p609
tp610
Rp611
tp612
a(F43.153118460280496
g18
(g22
S'\xb7\x99\x99\x99\x99YF@'
p613
tp614
Rp615
tp616
a(F44.59153474785999
g18
(g22
S'\x84fffffF@'
p617
tp618
Rp619
tp620
a(F45.884157243558974
g18
(g22
S'Q3333sF@'
p621
tp622
Rp623
tp624
a(F47.01807049068461
g18
(g22
S'\x1e\x00\x00\x00\x00\x80F@'
p625
tp626
Rp627
tp628
a(F47.98194480289351
g18
(g22
S'\xeb\xcc\xcc\xcc\xcc\x8cF@'
p629
tp630
Rp631
tp632
a(F48.76614946667256
g18
(g22
S'\xb8\x99\x99\x99\x99\x99F@'
p633
tp634
Rp635
tp636
a(F49.36284896824489
g18
(g22
S'\x85ffff\xa6F@'
p637
tp638
Rp639
tp640
a(F49.76608128343341
g18
(g22
S'R3333\xb3F@'
p641
tp642
Rp643
tp644
a(F49.97181744823564
g18
(g22
S'\x1f\x00\x00\x00\x00\xc0F@'
p645
tp646
Rp647
tp648
a(F49.97800181490021
g18
(g22
S'\xec\xcc\xcc\xcc\xcc\xccF@'
p649
tp650
Rp651
tp652
a(F49.7845725912797
g18
(g22
S'\xb9\x99\x99\x99\x99\xd9F@'
p653
tp654
Rp655
tp656
a(F49.39346245823731
g18
(g22
S'\x86ffff\xe6F@'
p657
tp658
Rp659
tp660
a(F48.80857925893857
g18
(g22
S'S3333\xf3F@'
p661
tp662
Rp663
tp664
a(F48.03576695297422
g18
(g22
S' \x00\x00\x00\x00\x00G@'
p665
tp666
Rp667
tp668
a(F47.08274722544765
g18
(g22
S'\xed\xcc\xcc\xcc\xcc\x0cG@'
p669
tp670
Rp671
tp672
a(F45.959042334449876
g18
(g22
S'\xba\x99\x99\x99\x99\x19G@'
p673
tp674
Rp675
tp676
a(F44.67587996780429
g18
(g22
S'\x87ffff&G@'
p677
tp678
Rp679
tp680
a(F43.24608105972135
g18
(g22
S'T33333G@'
p681
tp682
Rp683
tp684
a(F41.68393168826191
g18
(g22
S'!\x00\x00\x00\x00@G@'
p685
tp686
Rp687
tp688
a(F40.00504033356768
g18
(g22
S'\xee\xcc\xcc\xcc\xccLG@'
p689
tp690
Rp691
tp692
a(F38.22618192308707
g18
(g22
S'\xbb\x99\x99\x99\x99YG@'
p693
tp694
Rp695
tp696
a(F36.36513022204518
g18
(g22
S'\x88fffffG@'
p697
tp698
Rp699
tp700
a(F34.44048024385694
g18
(g22
S'U3333sG@'
p701
tp702
Rp703
tp704
a(F32.47146245489969
g18
(g22
S'"\x00\x00\x00\x00\x80G@'
p705
tp706
Rp707
tp708
a(F30.477750630049947
g18
(g22
S'\xef\xcc\xcc\xcc\xcc\x8cG@'
p709
tp710
Rp711
tp712
a(F28.479265278828112
g18
(g22
S'\xbc\x99\x99\x99\x99\x99G@'
p713
tp714
Rp715
tp716
a(F26.49597460625216
g18
(g22
S'\x89ffff\xa6G@'
p717
tp718
Rp719
tp720
a(F24.54769499713374
g18
(g22
S'V3333\xb3G@'
p721
tp722
Rp723
tp724
a(F22.653893017311546
g18
(g22
S'#\x00\x00\x00\x00\xc0G@'
p725
tp726
Rp727
tp728
a(F20.833490910160265
g18
(g22
S'\xf0\xcc\xcc\xcc\xcc\xccG@'
p729
tp730
Rp731
tp732
a(F19.104677531789605
g18
(g22
S'\xbd\x99\x99\x99\x99\xd9G@'
p733
tp734
Rp735
tp736
a(F17.48472661400654
g18
(g22
S'\x8affff\xe6G@'
p737
tp738
Rp739
tp740
a(F15.989824170896965
g18
(g22
S'W3333\xf3G@'
p741
tp742
Rp743
tp744
a(F14.634906773523388
g18
(g22
S'$\x00\x00\x00\x00\x00H@'
p745
tp746
Rp747
tp748
a(F13.433512308644225
g18
(g22
S'\xf1\xcc\xcc\xcc\xcc\x0cH@'
p749
tp750
Rp751
tp752
a(F12.39764471262433
g18
(g22
S'\xbe\x99\x99\x99\x99\x19H@'
p753
tp754
Rp755
tp756
a(F11.53765403207084
g18
(g22
S'\x8bffff&H@'
p757
tp758
Rp759
tp760
a(F10.862133009588717
g18
(g22
S'X33333H@'
p761
tp762
Rp763
tp764
a(F10.377831227937044
g18
(g22
S'%\x00\x00\x00\x00@H@'
p765
tp766
Rp767
tp768
a(F10.089587670429193
g18
(g22
S'\xf2\xcc\xcc\xcc\xccLH@'
p769
tp770
Rp771
tp772
a(F10.000282371411139
g18
(g22
S'\xbf\x99\x99\x99\x99YH@'
p773
tp774
Rp775
tp776
a(F10.11080763991026
g18
(g22
S'\x8cfffffH@'
p777
tp778
Rp779
tp780
a(F10.420059143978506
g18
(g22
S'Y3333sH@'
p781
tp782
Rp783
tp784
a(F10.924946944812184
g18
(g22
S'&\x00\x00\x00\x00\x80H@'
p785
tp786
Rp787
tp788
a(F11.620426370399088
g18
(g22
S'\xf3\xcc\xcc\xcc\xcc\x8cH@'
p789
tp790
Rp791
tp792
a(F12.499548420213678
g18
(g22
S'\xc0\x99\x99\x99\x99\x99H@'
p793
tp794
Rp795
tp796
a(F13.553529197333326
g18
(g22
S'\x8dffff\xa6H@'
p797
tp798
Rp799
tp800
a(F14.771837674232774
g18
(g22
S'Z3333\xb3H@'
p801
tp802
Rp803
tp804
a(F16.142300915330082
g18
(g22
S"'\x00\x00\x00\x00\xc0H@"
p805
tp806
Rp807
tp808
a(F17.651225704935122
g18
(g22
S'\xf4\xcc\xcc\xcc\xcc\xccH@'
p809
tp810
Rp811
tp812
a(F19.283535365334384
g18
(g22
S'\xc1\x99\x99\x99\x99\xd9H@'
p813
tp814
Rp815
tp816
a(F21.02292039797099
g18
(g22
S'\x8effff\xe6H@'
p817
tp818
Rp819
tp820
a(F22.852001442563083
g18
(g22
S'[3333\xf3H@'
p821
tp822
Rp823
tp824
a(F24.75250292592691
g18
(g22
S'(\x00\x00\x00\x00\x00I@'
p825
tp826
Rp827
tp828
a(F26.705435665462964
g18
(g22
S'\xf5\xcc\xcc\xcc\xcc\x0cI@'
p829
tp830
Rp831
tp832
a(F28.691286602791532
g18
(g22
S'\xc2\x99\x99\x99\x99\x19I@'
p833
tp834
Rp835
tp836
a(F30.690213771781877
g18
(g22
S'\x8fffff&I@'
p837
tp838
Rp839
tp840
a(F32.68224455291892
g18
(g22
S'\\33333I@'
p841
tp842
Rp843
tp844
a(F34.64747523311536
g18
(g22
S')\x00\x00\x00\x00@I@'
p845
tp846
Rp847
tp848
a(F36.56626987703357
g18
(g22
S'\xf6\xcc\xcc\xcc\xccLI@'
p849
tp850
Rp851
tp852
a(F38.419456522860706
g18
(g22
S'\xc3\x99\x99\x99\x99YI@'
p853
tp854
Rp855
tp856
a(F40.188518742213724
g18
(g22
S'\x90fffffI@'
p857
tp858
Rp859
tp860
a(F41.855780650171056
g18
(g22
S']3333sI@'
p861
tp862
Rp863
tp864
a(F43.404583516871924
g18
(g22
S'*\x00\x00\x00\x00\x80I@'
p865
tp866
Rp867
tp868
a(F44.8194522160384
g18
(g22
S'\xf7\xcc\xcc\xcc\xcc\x8cI@'
p869
tp870
Rp871
tp872
a(F46.086249847321824
g18
(g22
S'\xc4\x99\x99\x99\x99\x99I@'
p873
tp874
Rp875
tp876
a(F47.192318987538044
g18
(g22
S'\x91ffff\xa6I@'
p877
tp878
Rp879
tp880
a(F48.126608159455856
g18
(g22
S'^3333\xb3I@'
p881
tp882
Rp883
tp884
a(F48.879782254504406
g18
(g22
S'+\x00\x00\x00\x00\xc0I@'
p885
tp886
Rp887
tp888
a(F49.444315806092206
g18
(g22
S'\xf8\xcc\xcc\xcc\xcc\xccI@'
p889
tp890
Rp891
tp892
a(F49.81456818158179
g18
(g22
S'\xc5\x99\x99\x99\x99\xd9I@'
p893
tp894
Rp895
tp896
a(F49.98683994162643
g18
(g22
S'\x92ffff\xe6I@'
p897
tp898
Rp899
tp900
a(F49.959409803745224
g18
(g22
S'_3333\xf3I@'
p901
tp902
Rp903
tp904
a(F49.73255184080869
g18
(g22
S',\x00\x00\x00\x00\x00J@'
p905
tp906
Rp907
tp908
a(F49.3085327425932
g18
(g22
S'\xf9\xcc\xcc\xcc\xcc\x0cJ@'
p909
tp910
Rp911
tp912
a(F48.69158916776607
g18
(g22
S'\xc6\x99\x99\x99\x99\x19J@'
p913
tp914
Rp915
tp916
a(F47.887885412592524
g18
(g22
S'\x93ffff&J@'
p917
tp918
Rp919
tp920
a(F46.90545181932512
g18
(g22
S'`33333J@'
p921
tp922
Rp923
tp924
a(F45.754104539678416
g18
(g22
S'-\x00\x00\x00\x00@J@'
p925
tp926
Rp927
tp928
a(F44.44534745508584
g18
(g22
S'\xfa\xcc\xcc\xcc\xccLJ@'
p929
tp930
Rp931
tp932
a(F42.99225723371905
g18
(g22
S'\xc7\x99\x99\x99\x99YJ@'
p933
tp934
Rp935
tp936
a(F41.409352672742195
g18
(g22
S'\x94fffffJ@'
p937
tp938
Rp939
tp940
a(F39.712449631289864
g18
(g22
S'a3333sJ@'
p941
tp942
Rp943
tp944
a(F37.91850300363068
g18
(g22
S'.\x00\x00\x00\x00\x80J@'
p945
tp946
Rp947
tp948
a(F36.045437311468305
g18
(g22
S'\xfb\xcc\xcc\xcc\xcc\x8cJ@'
p949
tp950
Rp951
tp952
a(F34.111967608045624
g18
(g22
S'\xc8\x99\x99\x99\x99\x99J@'
p953
tp954
Rp955
tp956
a(F32.13741248351913
g18
(g22
S'\x95ffff\xa6J@'
p957
tp958
Rp959
tp960
a(F30.14150103999194
g18
(g22
S'b3333\xb3J@'
p961
tp962
Rp963
tp964
a(F28.144175764847176
g18
(g22
S'/\x00\x00\x00\x00\xc0J@'
p965
tp966
Rp967
tp968
a(F26.165393272006128
g18
(g22
S'\xfc\xcc\xcc\xcc\xcc\xccJ@'
p969
tp970
Rp971
tp972
a(F24.224924902038737
g18
(g22
S'\xc9\x99\x99\x99\x99\xd9J@'
p973
tp974
Rp975
tp976
a(F22.342159173464154
g18
(g22
S'\x96ffff\xe6J@'
p977
tp978
Rp979
tp980
a(F20.535908059082693
g18
(g22
S'c3333\xf3J@'
p981
tp982
Rp983
tp984
a(F18.82421902296202
g18
(g22
S'0\x00\x00\x00\x00\x00K@'
p985
tp986
Rp987
tp988
a(F17.22419469614188
g18
(g22
S'\xfd\xcc\xcc\xcc\xcc\x0cK@'
p989
tp990
Rp991
tp992
a(F15.751821992798131
g18
(g22
S'\xca\x99\x99\x99\x99\x19K@'
p993
tp994
Rp995
tp996
a(F14.42181237428089
g18
(g22
S'\x97ffff&K@'
p997
tp998
Rp999
tp1000
a(F13.247454857055644
g18
(g22
S'd33333K@'
p1001
tp1002
Rp1003
tp1004
a(F12.24048323324353
g18
(g22
S'1\x00\x00\x00\x00@K@'
p1005
tp1006
Rp1007
tp1008
a(F11.410958830449111
g18
(g22
S'\xfe\xcc\xcc\xcc\xccLK@'
p1009
tp1010
Rp1011
tp1012
a(F10.7671699823008
g18
(g22
S'\xcb\x99\x99\x99\x99YK@'
p1013
tp1014
Rp1015
tp1016
a(F10.315549214160992
g18
(g22
S'\x98fffffK@'
p1017
tp1018
Rp1019
tp1020
a(F10.060608971458965
g18
(g22
S'e3333sK@'
p1021
tp1022
Rp1023
tp1024
a(F10.004896532827761
g18
(g22
S'2\x00\x00\x00\x00\x80K@'
p1025
tp1026
Rp1027
tp1028
a(F10.14896855853809
g18
(g22
S'\xff\xcc\xcc\xcc\xcc\x8cK@'
p1029
tp1030
Rp1031
tp1032
a(F10.491385528532945
g18
(g22
S'\xcc\x99\x99\x99\x99\x99K@'
p1033
tp1034
Rp1035
tp1036
a(F11.028726125636133
g18
(g22
S'\x99ffff\xa6K@'
p1037
tp1038
Rp1039
tp1040
a(F11.755621420222585
g18
(g22
S'f3333\xb3K@'
p1041
tp1042
Rp1043
tp1044
a(F12.66480851478843
g18
(g22
S'3\x00\x00\x00\x00\xc0K@'
p1045
tp1046
Rp1047
tp1048
a(F13.747203112422067
g18
(g22
S'\x00\xcd\xcc\xcc\xcc\xccK@'
p1049
tp1050
Rp1051
tp1052
a(F14.991990284096017
g18
(g22
S'\xcd\x99\x99\x99\x99\xd9K@'
p1053
tp1054
Rp1055
tp1056
a(F16.386732527862854
g18
(g22
S'\x9affff\xe6K@'
p1057
tp1058
Rp1059
tp1060
a(F17.917494040263346
g18
(g22
S'g3333\xf3K@'
p1061
tp1062
Rp1063
tp1064
a(F19.568979958268066
g18
(g22
S'4\x00\x00\x00\x00\x00L@'
p1065
tp1066
Rp1067
tp1068
a(F21.324689180492978
g18
(g22
S'\x01\xcd\xcc\xcc\xcc\x0cL@'
p1069
tp1070
Rp1071
tp1072
a(F23.167079240749914
g18
(g22
S'\xce\x99\x99\x99\x99\x19L@'
p1073
tp1074
Rp1075
tp1076
a(F25.077741586569974
g18
(g22
S'\x9bffff&L@'
p1077
tp1078
Rp1079
tp1080
a(F27.037585511374722
g18
(g22
S'h33333L@'
p1081
tp1082
Rp1083
tp1084
a(F29.027028902505776
g18
(g22
S'5\x00\x00\x00\x00@L@'
p1085
tp1086
Rp1087
tp1088
a(F31.02619389922151
g18
(g22
S'\x02\xcd\xcc\xcc\xccLL@'
p1089
tp1090
Rp1091
tp1092
a(F33.01510550571083
g18
(g22
S'\xcf\x99\x99\x99\x99YL@'
p1093
tp1094
Rp1095
tp1096
a(F34.97389117464845
g18
(g22
S'\x9cfffffL@'
p1097
tp1098
Rp1099
tp1100
a(F36.882979367118814
g18
(g22
S'i3333sL@'
p1101
tp1102
Rp1103
tp1104
a(F38.723295104963405
g18
(g22
S'6\x00\x00\x00\x00\x80L@'
p1105
tp1106
Rp1107
tp1108
a(F40.47645056165719
g18
(g22
S'\x03\xcd\xcc\xcc\xcc\x8cL@'
p1109
tp1110
Rp1111
tp1112
a(F42.12492878739302
g18
(g22
S'\xd0\x99\x99\x99\x99\x99L@'
p1113
tp1114
Rp1115
tp1116
a(F43.6522587326538
g18
(g22
S'\x9dffff\xa6L@'
p1117
tp1118
Rp1119
tp1120
a(F45.04317982149464
g18
(g22
S'j3333\xb3L@'
p1121
tp1122
Rp1123
tp1124
a(F46.28379443017323
g18
(g22
S'7\x00\x00\x00\x00\xc0L@'
p1125
tp1126
Rp1127
tp1128
a(F47.36170674761231
g18
(g22
S'\x04\xcd\xcc\xcc\xcc\xccL@'
p1129
tp1130
Rp1131
tp1132
a(F48.266146630246475
g18
(g22
S'\xd1\x99\x99\x99\x99\xd9L@'
p1133
tp1134
Rp1135
tp1136
a(F48.988077213736524
g18
(g22
S'\x9effff\xe6L@'
p1137
tp1138
Rp1139
tp1140
a(F49.52028520633074
g18
(g22
S'k3333\xf3L@'
p1141
tp1142
Rp1143
tp1144
a(F49.85745296169169
g18
(g22
S'8\x00\x00\x00\x00\x00M@'
p1145
tp1146
Rp1147
tp1148
a(F49.99621161106066
g18
(g22
S'\x05\xcd\xcc\xcc\xcc\x0cM@'
p1149
tp1150
Rp1151
tp1152
a(F49.935174723880664
g18
(g22
S'\xd2\x99\x99\x99\x99\x19M@'
p1153
tp1154
Rp1155
tp1156
a(F49.67495216055229
g18
(g22
S'\x9fffff&M@'
p1157
tp1158
Rp1159
tp1160
a(F49.21814397891016
g18
(g22
S'l33333M@'
p1161
tp1162
Rp1163
tp1164
a(F48.569314455304564
g18
(g22
S'9\x00\x00\x00\x00@M@'
p1165
tp1166
Rp1167
tp1168
a(F47.73494647986082
g18
(g22
S'\x06\xcd\xcc\xcc\xccLM@'
p1169
tp1170
Rp1171
tp1172
a(F46.72337678158418
g18
(g22
S'\xd3\x99\x99\x99\x99YM@'
p1173
tp1174
Rp1175
tp1176
a(F45.54471263051934
g18
(g22
S'\xa0fffffM@'
p1177
tp1178
Rp1179
tp1180
a(F44.21073084924919
g18
(g22
S'm3333sM@'
p1181
tp1182
Rp1183
tp1184
a(F42.7347601427764
g18
(g22
S':\x00\x00\x00\x00\x80M@'
p1185
tp1186
Rp1187
tp1188
a(F41.13154792250903
g18
(g22
S'\x07\xcd\xcc\xcc\xcc\x8cM@'
p1189
tp1190
Rp1191
tp1192
a(F39.41711295500046
g18
(g22
S'\xd4\x99\x99\x99\x99\x99M@'
p1193
tp1194
Rp1195
tp1196
a(F37.60858530772921
g18
(g22
S'\xa1ffff\xa6M@'
p1197
tp1198
Rp1199
tp1200
a(F35.72403519112704
g18
(g22
S'n3333\xb3M@'
p1201
tp1202
Rp1203
tp1204
a(F33.7822924070096
g18
(g22
S';\x00\x00\x00\x00\xc0M@'
p1205
tp1206
Rp1207
tp1208
a(F31.802758207420958
g18
(g22
S'\x08\xcd\xcc\xcc\xcc\xccM@'
p1209
tp1210
Rp1211
tp1212
a(F29.805211443736404
g18
(g22
S'\xd5\x99\x99\x99\x99\xd9M@'
p1213
tp1214
Rp1215
tp1216
a(F27.8096109429175
g18
(g22
S'\xa2ffff\xe6M@'
p1217
tp1218
Rp1219
tp1220
a(F25.83589608551061
g18
(g22
S'o3333\xf3M@'
p1221
tp1222
Rp1223
tp1224
asbsS'settings'
p1225
(dp1226
S'name'
p1227
csip
_unpickle_type
p1228
(S'PyQt4.QtCore'
p1229
S'QString'
p1230
(VAbdrehen
p1231
tp1232
tp1233
Rp1234
sS'tool'
p1235
I17
sS'feedMode'
p1236
I0
sS'feedValue'
p1237
F10.0
sS'speedValue'
p1238
I2000
sS'speedMode'
p1239
I0
sS'finalPassDepth'
p1240
F0.5
sS'cutDepth'
p1241
F2.0
ssbasS'fileStructureVersion'
p1242
S'2013-12-27'
p1243
s.